target datalayout = "e-m:e-p270:32:32-p271:32:32-p272:64:64-i64:64-i128:128-f80:128-n8:16:32:64-S128"
target triple = "x86_64-pc-linux-gnu"

%"class.open3d::core::Device" = type { i32, i32 }

@.str = private unnamed_addr constant [118 x i8] c"generated/home/dtcxzyw/WorkSpace/Projects/compilers/llvm-opt-benchmark/bench/open3d/Open3D/cpp/open3d/core/Device.cpp\00", align 1
@__PRETTY_FUNCTION__._ZN6open3d4core6DeviceC2ENS1_10DeviceTypeEi = private unnamed_addr constant [46 x i8] c"open3d::core::Device::Device(DeviceType, int)\00", align 1
@.str.1 = private unnamed_addr constant [40 x i8] c"CPU has device_id {}, but it must be 0.\00", align 1

; Function Attrs: mustprogress ssp uwtable
define void @_ZN6open3d4core6DeviceC2ENS1_10DeviceTypeEi(ptr noundef nonnull align 4 dereferenceable(8) %0, i32 noundef %1, i32 noundef %2) unnamed_addr #0 align 2 {
  %4 = alloca ptr, align 8
  %5 = alloca i32, align 4
  %6 = alloca i32, align 4
  store ptr %0, ptr %4, align 8, !tbaa !4
  store i32 %1, ptr %5, align 4, !tbaa !9
  store i32 %2, ptr %6, align 4, !tbaa !11
  %7 = load ptr, ptr %4, align 8
  %8 = getelementptr inbounds nuw %"class.open3d::core::Device", ptr %7, i32 0, i32 0
  %9 = load i32, ptr %5, align 4, !tbaa !9
  store i32 %9, ptr %8, align 4, !tbaa !13
  %10 = getelementptr inbounds nuw %"class.open3d::core::Device", ptr %7, i32 0, i32 1
  %11 = load i32, ptr %6, align 4, !tbaa !11
  store i32 %11, ptr %10, align 4, !tbaa !15
  %12 = getelementptr inbounds nuw %"class.open3d::core::Device", ptr %7, i32 0, i32 0
  %13 = load i32, ptr %12, align 4, !tbaa !13
  %14 = icmp eq i32 %13, 0
  br i1 %14, label %15, label %21

15:                                               ; preds = %3
  %16 = getelementptr inbounds nuw %"class.open3d::core::Device", ptr %7, i32 0, i32 1
  %17 = load i32, ptr %16, align 4, !tbaa !15
  %18 = icmp ne i32 %17, 0
  br i1 %18, label %19, label %21

19:                                               ; preds = %15
  %20 = getelementptr inbounds nuw %"class.open3d::core::Device", ptr %7, i32 0, i32 1
  call void @_ZN6open3d7utility6Logger9LogError_IJRiEEEvPKciS5_S5_DpOT_(ptr noundef @.str, i32 noundef 64, ptr noundef @__PRETTY_FUNCTION__._ZN6open3d4core6DeviceC2ENS1_10DeviceTypeEi, ptr noundef @.str.1, ptr noundef nonnull align 4 dereferenceable(4) %20) #27
  unreachable

21:                                               ; preds = %15, %3
  ret void
}