; Function Attrs: mustprogress ssp uwtable
define void @_ZN6open3d4core6DeviceC2ENS1_10DeviceTypeEi(ptr noundef nonnull align 4 dereferenceable(8) initializes((0, 8)) %0, i32 noundef %1, i32 noundef %2) unnamed_addr #0 align 2 {
  store i32 %1, ptr %0, align 4, !tbaa !4
  %4 = getelementptr inbounds nuw i8, ptr %0, i64 4
  store i32 %2, ptr %4, align 4, !tbaa !10
  %5 = icmp ne i32 %1, 0
  %.not = icmp eq i32 %2, 0
  %or.cond = or i1 %5, %.not
  br i1 %or.cond, label %7, label %6

6:                                                ; preds = %3
  tail call void @_ZN6open3d7utility6Logger9LogError_IJRiEEEvPKciS5_S5_DpOT_(ptr noundef nonnull @.str, i32 noundef 64, ptr noundef nonnull @__PRETTY_FUNCTION__._ZN6open3d4core6DeviceC2ENS1_10DeviceTypeEi, ptr noundef nonnull @.str.1, ptr noundef nonnull align 4 dereferenceable(4) %4) #29
  unreachable

7:                                                ; preds = %3
  ret void
}